; Function Attrs: mustprogress uwtable
define hidden noundef zeroext i1 @_ZN5model15get_some_valuesEP4sortR7obj_refI4expr11ast_managerES6_(ptr noundef nonnull align 8 dereferenceable(160) %this, ptr noundef %s, ptr noundef nonnull align 8 dereferenceable(16) %v1, ptr noundef nonnull align 8 dereferenceable(16) %v2) unnamed_addr #3 align 2 {
entry:
  %call = tail call noundef ptr @_ZN5model11get_factoryEP4sort(ptr noundef nonnull align 8 dereferenceable(160) %this, ptr noundef %s)
  %vtable = load ptr, ptr %call, align 8
  %vfn = getelementptr inbounds i8, ptr %vtable, i64 24
  %0 = load ptr, ptr %vfn, align 8
  %call2 = tail call noundef zeroext i1 %0(ptr noundef nonnull align 8 dereferenceable(20) %call, ptr noundef %s, ptr noundef nonnull align 8 dereferenceable(16) %v1, ptr noundef nonnull align 8 dereferenceable(16) %v2)
  ret i1 %call2
}